Certificate:
    Data:
        Version: 3 (0x2)
        Serial Number: 4097 (0x1001)
        Signature Algorithm: sha256WithRSAEncryption
        Issuer: C=US, O=Kelliher Evil Certificate Authority, OU=Fraud Unit, CN=TPK42
        Validity
            Not Before: Feb 29 00:54:28 2024 GMT
            Not After : Feb 26 00:54:28 2034 GMT
        Subject: C=US, O=Bank32 Inc., CN=www.bank32.com
        Subject Public Key Info:
            Public Key Algorithm: rsaEncryption
                RSA Public-Key: (2048 bit)
                Modulus:
                    00:b9:0e:e6:19:6b:77:e9:5e:b2:ca:d7:2b:7a:c2:
                    08:a6:ad:c6:ff:f8:dc:f6:60:91:2e:52:df:0b:31:
                    a3:0c:2f:e1:69:8e:3a:a5:11:d3:ac:d3:e1:f1:94:
                    0f:ea:b7:27:1a:24:65:bc:2b:e6:e8:76:6a:a7:f2:
                    b4:c8:07:ca:af:6d:7b:b4:d5:de:9f:37:d3:ca:b4:
                    a6:96:9f:79:84:3a:69:66:ac:02:06:c5:71:a0:1e:
                    bb:e9:da:15:ff:f9:6d:32:11:e0:b9:c2:82:fc:b0:
                    4a:7b:e9:35:af:e4:20:78:32:f8:45:ad:2e:95:54:
                    23:4e:f3:94:e6:50:e9:c9:0c:ca:85:12:30:f3:67:
                    d6:2b:6f:0d:68:0b:5b:3c:11:8e:46:37:32:38:89:
                    32:3c:d8:7c:9c:db:53:12:f9:3d:56:62:58:db:1d:
                    8b:57:18:06:04:ed:fb:c2:51:c0:36:af:f3:12:1c:
                    d1:8e:ff:52:eb:ca:62:15:27:91:41:d6:f3:88:ae:
                    d8:7d:77:fe:a8:9b:49:46:0d:0e:68:13:d5:a1:5e:
                    e3:a9:eb:6d:d6:6c:36:b5:2d:ae:0f:ef:54:05:05:
                    10:b1:7a:2f:f4:c8:87:a3:d2:af:4c:40:db:53:63:
                    83:42:15:26:37:6c:d6:e9:46:73:ae:7d:58:f4:d4:
                    95:37
                Exponent: 65537 (0x10001)
        X509v3 extensions:
            X509v3 Basic Constraints: 
                CA:FALSE
            Netscape Comment: 
                OpenSSL Generated Certificate
            X509v3 Subject Key Identifier: 
                D3:A2:FF:6B:73:C0:29:90:D9:FA:EA:E8:6B:29:26:E3:C6:68:31:F2
            X509v3 Authority Key Identifier: 
                keyid:FF:4F:8D:5E:42:68:E3:E9:F2:0D:79:C1:1C:ED:AC:0A:A0:78:82:1F

            X509v3 Subject Alternative Name: 
                DNS:www.bank32.com, DNS:www.bank32A.com, DNS:www.bank32B.com
    Signature Algorithm: sha256WithRSAEncryption
         2e:e8:da:f4:f1:61:da:5e:f0:4d:08:8b:5e:69:17:0a:53:23:
         b7:ee:1f:3c:4e:ad:69:a3:e9:d8:76:f4:22:61:4e:fd:28:d4:
         bc:6c:be:82:f7:e5:af:35:f6:5e:7f:68:68:6a:c6:95:f4:fe:
         ab:87:30:52:7d:ab:22:3f:cc:fa:60:8b:8a:75:6f:a5:46:02:
         63:8e:29:b6:01:eb:c4:bf:6d:78:81:06:72:93:bf:bc:24:05:
         f4:b8:bb:12:1b:da:de:8e:da:f1:b7:7b:c9:61:bc:0d:b3:48:
         00:93:ea:1b:4c:93:6e:0c:d7:44:18:cc:42:62:bc:06:49:46:
         42:81:03:a0:ff:e0:09:f0:f1:b2:28:85:7e:de:33:ed:c4:d3:
         6e:43:e5:77:cf:9f:d4:24:3a:1a:28:81:a7:fd:21:f6:54:ec:
         7f:9b:49:f6:9b:5a:cd:76:3a:ce:8f:4b:93:6c:b7:66:02:72:
         2d:3c:17:2c:4c:39:b3:7d:d8:81:f4:6a:4f:e0:c3:9d:02:9a:
         7d:15:18:7d:05:fc:82:50:9f:a1:36:3c:d7:3d:ba:42:d4:9a:
         6c:c2:01:48:c8:40:41:a6:48:06:28:29:0c:5f:0b:77:ca:97:
         45:35:67:78:9a:65:9e:9d:84:a9:9d:b8:d2:c4:c5:84:6b:f2:
         cf:e4:2a:32:7d:2b:00:87:19:16:16:67:ec:2b:ab:a4:a5:8f:
         c2:28:a6:34:82:69:c7:f3:75:16:8b:b4:3c:32:a2:2c:d3:72:
         c8:17:91:e3:34:2b:50:c4:d9:1d:91:87:59:51:1a:83:6e:bc:
         0b:c5:80:95:e1:c5:55:0e:a7:ab:02:84:5b:62:cf:2a:7a:2f:
         96:b6:98:fe:44:fd:7e:7b:b1:d6:95:1b:5f:af:c8:b3:12:f7:
         37:d4:20:9b:85:2f:12:8f:23:8f:a4:65:12:25:9d:d4:60:d0:
         ef:93:6e:69:35:73:2e:c8:91:4c:d5:d4:7a:08:5e:9d:c8:d5:
         15:c0:f6:bb:22:17:8a:0f:11:9a:54:f3:5a:ac:fa:e3:d6:12:
         96:f4:db:03:04:aa:36:d0:c0:51:fc:35:b4:18:1f:45:d0:77:
         5a:11:b2:d1:93:d2:58:21:58:8f:e4:c0:dd:ed:44:74:de:d1:
         bb:2e:b2:06:b0:d8:ef:eb:31:c4:eb:bc:c0:47:fd:d3:96:f9:
         5c:9b:fe:7c:4f:de:9a:d4:d7:fa:31:97:8f:8d:52:89:ff:72:
         88:42:39:8b:8d:32:54:19:e5:3e:71:f3:76:fc:09:74:6a:93:
         da:f4:3e:84:1e:56:06:4c:9f:1f:dd:cb:c7:d1:1a:18:76:e6:
         fe:15:51:77:19:83:ce:0b
-----BEGIN CERTIFICATE-----
MIIE0jCCArqgAwIBAgICEAEwDQYJKoZIhvcNAQELBQAwYDELMAkGA1UEBhMCVVMx
LDAqBgNVBAoMI0tlbGxpaGVyIEV2aWwgQ2VydGlmaWNhdGUgQXV0aG9yaXR5MRMw
EQYDVQQLDApGcmF1ZCBVbml0MQ4wDAYDVQQDDAVUUEs0MjAeFw0yNDAyMjkwMDU0
MjhaFw0zNDAyMjYwMDU0MjhaMDwxCzAJBgNVBAYTAlVTMRQwEgYDVQQKDAtCYW5r
MzIgSW5jLjEXMBUGA1UEAwwOd3d3LmJhbmszMi5jb20wggEiMA0GCSqGSIb3DQEB
AQUAA4IBDwAwggEKAoIBAQC5DuYZa3fpXrLK1yt6wgimrcb/+Nz2YJEuUt8LMaMM
L+FpjjqlEdOs0+HxlA/qtycaJGW8K+bodmqn8rTIB8qvbXu01d6fN9PKtKaWn3mE
OmlmrAIGxXGgHrvp2hX/+W0yEeC5woL8sEp76TWv5CB4MvhFrS6VVCNO85TmUOnJ
DMqFEjDzZ9Yrbw1oC1s8EY5GNzI4iTI82Hyc21MS+T1WYljbHYtXGAYE7fvCUcA2
r/MSHNGO/1LrymIVJ5FB1vOIrth9d/6om0lGDQ5oE9WhXuOp623WbDa1La4P71QF
BRCxei/0yIej0q9MQNtTY4NCFSY3bNbpRnOufVj01JU3AgMBAAGjgbkwgbYwCQYD
VR0TBAIwADAsBglghkgBhvhCAQ0EHxYdT3BlblNTTCBHZW5lcmF0ZWQgQ2VydGlm
aWNhdGUwHQYDVR0OBBYEFNOi/2tzwCmQ2frq6GspJuPGaDHyMB8GA1UdIwQYMBaA
FP9PjV5CaOPp8g15wRztrAqgeIIfMDsGA1UdEQQ0MDKCDnd3dy5iYW5rMzIuY29t
gg93d3cuYmFuazMyQS5jb22CD3d3dy5iYW5rMzJCLmNvbTANBgkqhkiG9w0BAQsF
AAOCAgEALuja9PFh2l7wTQiLXmkXClMjt+4fPE6taaPp2Hb0ImFO/SjUvGy+gvfl
rzX2Xn9oaGrGlfT+q4cwUn2rIj/M+mCLinVvpUYCY44ptgHrxL9teIEGcpO/vCQF
9Li7Ehva3o7a8bd7yWG8DbNIAJPqG0yTbgzXRBjMQmK8BklGQoEDoP/gCfDxsiiF
ft4z7cTTbkPld8+f1CQ6GiiBp/0h9lTsf5tJ9ptazXY6zo9Lk2y3ZgJyLTwXLEw5
s33YgfRqT+DDnQKafRUYfQX8glCfoTY81z26QtSabMIBSMhAQaZIBigpDF8Ld8qX
RTVneJplnp2EqZ240sTFhGvyz+QqMn0rAIcZFhZn7CurpKWPwiimNIJpx/N1Fou0
PDKiLNNyyBeR4zQrUMTZHZGHWVEag268C8WAleHFVQ6nqwKEW2LPKnovlraY/kT9
fnux1pUbX6/IsxL3N9Qgm4UvEo8jj6RlEiWd1GDQ75NuaTVzLsiRTNXUeghencjV
FcD2uyIXig8RmlTzWqz649YSlvTbAwSqNtDAUfw1tBgfRdB3WhGy0ZPSWCFYj+TA
3e1EdN7Ruy6yBrDY7+sxxOu8wEf905b5XJv+fE/emtTX+jGXj41Sif9yiEI5i40y
VBnlPnHzdvwJdGqT2vQ+hB5WBkyfH93Lx9EaGHbm/hVRdxmDzgs=
-----END CERTIFICATE-----
